target datalayout = "e-m:e-p270:32:32-p271:32:32-p272:64:64-i64:64-i128:128-f80:128-n8:16:32:64-S128"
target triple = "x86_64-pc-linux-gnu"

; Function Attrs: nounwind uwtable
define internal void @fade_samples_s16(ptr noundef %0, ptr noundef %1, i32 noundef %2, i32 noundef %3, i32 noundef %4, i64 noundef %5, i64 noundef %6, i32 noundef %7, double noundef %8, double noundef %9) #1 {
  %11 = alloca ptr, align 8
  %12 = alloca ptr, align 8
  %13 = alloca i32, align 4
  %14 = alloca i32, align 4
  %15 = alloca i32, align 4
  %16 = alloca i64, align 8
  %17 = alloca i64, align 8
  %18 = alloca i32, align 4
  %19 = alloca double, align 8
  %20 = alloca double, align 8
  %21 = alloca ptr, align 8
  %22 = alloca ptr, align 8
  %23 = alloca i32, align 4
  %24 = alloca i32, align 4
  %25 = alloca i32, align 4
  %26 = alloca double, align 8
  store ptr %0, ptr %11, align 8, !tbaa !77
  store ptr %1, ptr %12, align 8, !tbaa !77
  store i32 %2, ptr %13, align 4, !tbaa !30
  store i32 %3, ptr %14, align 4, !tbaa !30
  store i32 %4, ptr %15, align 4, !tbaa !30
  store i64 %5, ptr %16, align 8, !tbaa !58
  store i64 %6, ptr %17, align 8, !tbaa !58
  store i32 %7, ptr %18, align 4, !tbaa !30
  store double %8, ptr %19, align 8, !tbaa !78
  store double %9, ptr %20, align 8, !tbaa !78
  call void @llvm.lifetime.start.p0(i64 8, ptr %21) #10
  %27 = load ptr, ptr %11, align 8, !tbaa !77
  %28 = getelementptr inbounds ptr, ptr %27, i64 0
  %29 = load ptr, ptr %28, align 8, !tbaa !29
  store ptr %29, ptr %21, align 8, !tbaa !100
  call void @llvm.lifetime.start.p0(i64 8, ptr %22) #10
  %30 = load ptr, ptr %12, align 8, !tbaa !77
  %31 = getelementptr inbounds ptr, ptr %30, i64 0
  %32 = load ptr, ptr %31, align 8, !tbaa !29
  store ptr %32, ptr %22, align 8, !tbaa !100
  call void @llvm.lifetime.start.p0(i64 4, ptr %23) #10
  call void @llvm.lifetime.start.p0(i64 4, ptr %24) #10
  call void @llvm.lifetime.start.p0(i64 4, ptr %25) #10
  store i32 0, ptr %25, align 4, !tbaa !30
  store i32 0, ptr %23, align 4, !tbaa !30
  br label %33

33:                                               ; preds = %74, %10
  %34 = load i32, ptr %23, align 4, !tbaa !30
  %35 = load i32, ptr %13, align 4, !tbaa !30
  %36 = icmp slt i32 %34, %35
  br i1 %36, label %37, label %77

37:                                               ; preds = %33
  call void @llvm.lifetime.start.p0(i64 8, ptr %26) #10
  %38 = load i32, ptr %18, align 4, !tbaa !30
  %39 = load i64, ptr %16, align 8, !tbaa !58
  %40 = load i32, ptr %23, align 4, !tbaa !30
  %41 = load i32, ptr %15, align 4, !tbaa !30
  %42 = mul nsw i32 %40, %41
  %43 = sext i32 %42 to i64
  %44 = add nsw i64 %39, %43
  %45 = load i64, ptr %17, align 8, !tbaa !58
  %46 = load double, ptr %19, align 8, !tbaa !78
  %47 = load double, ptr %20, align 8, !tbaa !78
  %48 = call nsz double @fade_gain(i32 noundef %38, i64 noundef %44, i64 noundef %45, double noundef %46, double noundef %47)
  store double %48, ptr %26, align 8, !tbaa !78
  store i32 0, ptr %24, align 4, !tbaa !30
  br label %49

49:                                               ; preds = %68, %37
  %50 = load i32, ptr %24, align 4, !tbaa !30
  %51 = load i32, ptr %14, align 4, !tbaa !30
  %52 = icmp slt i32 %50, %51
  br i1 %52, label %53, label %73

53:                                               ; preds = %49
  %54 = load ptr, ptr %22, align 8, !tbaa !100
  %55 = load i32, ptr %25, align 4, !tbaa !30
  %56 = sext i32 %55 to i64
  %57 = getelementptr inbounds i16, ptr %54, i64 %56
  %58 = load i16, ptr %57, align 2, !tbaa !102
  %59 = sext i16 %58 to i32
  %60 = sitofp i32 %59 to double
  %61 = load double, ptr %26, align 8, !tbaa !78
  %62 = fmul nsz double %60, %61
  %63 = fptosi double %62 to i16
  %64 = load ptr, ptr %21, align 8, !tbaa !100
  %65 = load i32, ptr %25, align 4, !tbaa !30
  %66 = sext i32 %65 to i64
  %67 = getelementptr inbounds i16, ptr %64, i64 %66
  store i16 %63, ptr %67, align 2, !tbaa !102
  br label %68

68:                                               ; preds = %53
  %69 = load i32, ptr %24, align 4, !tbaa !30
  %70 = add nsw i32 %69, 1
  store i32 %70, ptr %24, align 4, !tbaa !30
  %71 = load i32, ptr %25, align 4, !tbaa !30
  %72 = add nsw i32 %71, 1
  store i32 %72, ptr %25, align 4, !tbaa !30
  br label %49, !llvm.loop !104

73:                                               ; preds = %49
  call void @llvm.lifetime.end.p0(i64 8, ptr %26) #10
  br label %74

74:                                               ; preds = %73
  %75 = load i32, ptr %23, align 4, !tbaa !30
  %76 = add nsw i32 %75, 1
  store i32 %76, ptr %23, align 4, !tbaa !30
  br label %33, !llvm.loop !105

77:                                               ; preds = %33
  call void @llvm.lifetime.end.p0(i64 4, ptr %25) #10
  call void @llvm.lifetime.end.p0(i64 4, ptr %24) #10
  call void @llvm.lifetime.end.p0(i64 4, ptr %23) #10
  call void @llvm.lifetime.end.p0(i64 8, ptr %22) #10
  call void @llvm.lifetime.end.p0(i64 8, ptr %21) #10
  ret void
}